target datalayout = "e-m:e-p270:32:32-p271:32:32-p272:64:64-i64:64-i128:128-f80:128-n8:16:32:64-S128"
target triple = "x86_64-unknown-linux-gnu"

%struct.QemuMutex = type { %union.pthread_mutex_t, i8 }
%union.pthread_mutex_t = type { %struct.__pthread_mutex_s }
%struct.__pthread_mutex_s = type { i32, i32, i32, i32, i32, i16, i16, %struct.__pthread_internal_list }
%struct.__pthread_internal_list = type { ptr, ptr }
%struct.QemuEvent = type { i32, i8 }
%struct.MigrationState = type { %struct.DeviceState, %struct.QemuThread, ptr, ptr, ptr, ptr, %struct.QemuSemaphore, ptr, %struct.QemuMutex, %struct.QemuSemaphore, i64, double, i64, i64, i64, %struct.MigrationParameters, i32, %struct.anon.7, double, i64, i64, i64, i64, i64, [23 x i8], i64, i32, i8, i8, i8, i8, %struct.QemuSemaphore, %struct.QemuSemaphore, %struct.QemuSemaphore, %struct.QemuEvent, i64, ptr, ptr, %struct.QemuMutex, i8, i8, i8, i8, %struct.QemuSemaphore, i8, i8, i8, i8, ptr, ptr, i8, i8 }
%struct.DeviceState = type { %struct.Object, ptr, ptr, i8, i8, i64, ptr, i32, i8, ptr, %struct.NamedGPIOListHead, %struct.NamedClockListHead, %struct.BusStateHead, i32, i32, i32, %struct.ResettableState, ptr, %struct.MemReentrancyGuard }
%struct.Object = type { ptr, ptr, ptr, i32, ptr }
%struct.NamedGPIOListHead = type { ptr }
%struct.NamedClockListHead = type { ptr }
%struct.BusStateHead = type { ptr }
%struct.ResettableState = type { i32, i8, i8 }
%struct.MemReentrancyGuard = type { i8 }
%struct.QemuThread = type { i64 }
%struct.MigrationParameters = type { i8, i64, i8, i64, i8, i64, i8, i64, i8, i8, i8, i8, i8, i8, i8, i8, i8, i8, i8, i8, i8, i8, i8, i8, ptr, ptr, ptr, i8, i64, i8, i64, i8, i64, i8, i32, i8, i8, i8, i8, i8, i64, i8, i64, i8, i8, i8, i32, i8, i8, i8, i8, i8, ptr, i8, i64, i8, i64, i8, i32 }
%struct.anon.7 = type { ptr, %struct.QemuThread, i8, %struct.QemuSemaphore, %struct.QemuSemaphore }
%struct.QemuSemaphore = type { %struct.QemuMutex, %struct.QemuCond, i32 }
%struct.QemuCond = type { %union.pthread_cond_t, i8 }
%union.pthread_cond_t = type { %struct.__pthread_cond_s }
%struct.__pthread_cond_s = type { %union.__atomic_wide_counter, %union.__atomic_wide_counter, [2 x i32], [2 x i32], i32, i32, [2 x i32] }
%union.__atomic_wide_counter = type { i64 }

; Function Attrs: nounwind sspstrong uwtable
define dso_local void @postcopy_preempt_shutdown_file(ptr noundef %s) #0 {
entry:
  %s.addr = alloca ptr, align 8
  store ptr %s, ptr %s.addr, align 8
  %0 = load ptr, ptr %s.addr, align 8
  %postcopy_qemufile_src = getelementptr inbounds %struct.MigrationState, ptr %0, i32 0, i32 5
  %1 = load ptr, ptr %postcopy_qemufile_src, align 8
  call void @qemu_put_be64(ptr noundef %1, i64 noundef 16)
  %2 = load ptr, ptr %s.addr, align 8
  %postcopy_qemufile_src1 = getelementptr inbounds %struct.MigrationState, ptr %2, i32 0, i32 5
  %3 = load ptr, ptr %postcopy_qemufile_src1, align 8
  %call = call i32 @qemu_fflush(ptr noundef %3)
  ret void
}