; Function Attrs: nounwind sspstrong uwtable
define dso_local void @postcopy_preempt_shutdown_file(ptr noundef readonly captures(none) %s) local_unnamed_addr #0 {
entry:
  %postcopy_qemufile_src = getelementptr inbounds nuw i8, ptr %s, i64 192
  %0 = load ptr, ptr %postcopy_qemufile_src, align 8
  tail call void @qemu_put_be64(ptr noundef %0, i64 noundef 16) #18
  %1 = load ptr, ptr %postcopy_qemufile_src, align 8
  %call = tail call i32 @qemu_fflush(ptr noundef %1) #18
  ret void
}